; ModuleID = 'source-C-CXX/52/899.c'
source_filename = "source-C-CXX/52/899.c"
target datalayout = "e-m:e-p270:32:32-p271:32:32-p272:64:64-i64:64-f80:128-n8:16:32:64-S128"
target triple = "x86_64-pc-linux-gnu"

%struct._IO_FILE = type { i32, i8*, i8*, i8*, i8*, i8*, i8*, i8*, i8*, i8*, i8*, i8*, %struct._IO_marker*, %struct._IO_FILE*, i32, i32, i64, i16, i8, [1 x i8], i8*, i64, %struct._IO_codecvt*, %struct._IO_wide_data*, %struct._IO_FILE*, i8*, i64, i32, [20 x i8] }
%struct._IO_marker = type opaque
%struct._IO_codecvt = type opaque
%struct._IO_wide_data = type opaque

@.str = private unnamed_addr constant [3 x i8] c"%d\00", align 1
@.str.1 = private unnamed_addr constant [4 x i8] c",%d\00", align 1
@stdin = external local_unnamed_addr global %struct._IO_FILE*, align 8

; Function Attrs: nofree nounwind sspstrong uwtable
define dso_local i32 @main() local_unnamed_addr #0 {
  %1 = alloca i32, align 4
  %2 = alloca [100 x i32], align 16
  %3 = bitcast i32* %1 to i8*
  call void @llvm.lifetime.start.p0i8(i64 4, i8* nonnull %3) #5
  %4 = bitcast [100 x i32]* %2 to i8*
  call void @llvm.lifetime.start.p0i8(i64 400, i8* nonnull %4) #5
  %5 = call i32 (i8*, ...) @__isoc99_scanf(i8* getelementptr inbounds ([3 x i8], [3 x i8]* @.str, i64 0, i64 0), i32* nonnull %1)
  %6 = load %struct._IO_FILE*, %struct._IO_FILE** @stdin, align 8, !tbaa !5
  %7 = call i32 @getc(%struct._IO_FILE* %6) #5
  %8 = load i32, i32* %1, align 4, !tbaa !9
  %9 = icmp sgt i32 %8, 0
  br i1 %9, label %10, label %20

10:                                               ; preds = %0, %10
  %11 = phi i64 [ %16, %10 ], [ 0, %0 ]
  %12 = getelementptr inbounds [100 x i32], [100 x i32]* %2, i64 0, i64 %11
  %13 = call i32 (i8*, ...) @__isoc99_scanf(i8* getelementptr inbounds ([3 x i8], [3 x i8]* @.str, i64 0, i64 0), i32* nonnull %12)
  %14 = load %struct._IO_FILE*, %struct._IO_FILE** @stdin, align 8, !tbaa !5
  %15 = call i32 @getc(%struct._IO_FILE* %14) #5
  %16 = add nuw nsw i64 %11, 1
  %17 = load i32, i32* %1, align 4, !tbaa !9
  %18 = sext i32 %17 to i64
  %19 = icmp slt i64 %16, %18
  br i1 %19, label %10, label %20, !llvm.loop !11

20:                                               ; preds = %10, %0
  %21 = getelementptr inbounds [100 x i32], [100 x i32]* %2, i64 0, i64 0
  %22 = load i32, i32* %21, align 16, !tbaa !9
  %23 = call i32 (i8*, ...) @printf(i8* nonnull dereferenceable(1) getelementptr inbounds ([3 x i8], [3 x i8]* @.str, i64 0, i64 0), i32 %22)
  %24 = load %struct._IO_FILE*, %struct._IO_FILE** @stdin, align 8, !tbaa !5
  %25 = call i32 @getc(%struct._IO_FILE* %24) #5
  %26 = load i32, i32* %1, align 4, !tbaa !9
  %27 = icmp sgt i32 %26, 1
  br i1 %27, label %28, label %134

28:                                               ; preds = %20, %128
  %29 = phi i64 [ %133, %128 ], [ 0, %20 ]
  %30 = phi i32 [ %129, %128 ], [ %26, %20 ]
  %31 = phi i64 [ %130, %128 ], [ 1, %20 ]
  %32 = add i64 %29, -7
  %33 = lshr i64 %32, 3
  %34 = add nuw nsw i64 %33, 1
  %35 = add i64 %29, 1
  %36 = getelementptr inbounds [100 x i32], [100 x i32]* %2, i64 0, i64 %31
  %37 = load i32, i32* %36, align 4, !tbaa !9
  %38 = icmp ult i64 %35, 8
  br i1 %38, label %108, label %39

39:                                               ; preds = %28
  %40 = and i64 %35, -8
  %41 = insertelement <4 x i32> poison, i32 %37, i32 0
  %42 = shufflevector <4 x i32> %41, <4 x i32> poison, <4 x i32> zeroinitializer
  %43 = insertelement <4 x i32> poison, i32 %37, i32 0
  %44 = shufflevector <4 x i32> %43, <4 x i32> poison, <4 x i32> zeroinitializer
  %45 = and i64 %34, 1
  %46 = icmp ult i64 %32, 8
  br i1 %46, label %82, label %47

47:                                               ; preds = %39
  %48 = and i64 %34, 4611686018427387902
  br label %49

49:                                               ; preds = %49, %47
  %50 = phi i64 [ 0, %47 ], [ %79, %49 ]
  %51 = phi <4 x i32> [ zeroinitializer, %47 ], [ %77, %49 ]
  %52 = phi <4 x i32> [ zeroinitializer, %47 ], [ %78, %49 ]
  %53 = phi i64 [ %48, %47 ], [ %80, %49 ]
  %54 = getelementptr inbounds [100 x i32], [100 x i32]* %2, i64 0, i64 %50
  %55 = bitcast i32* %54 to <4 x i32>*
  %56 = load <4 x i32>, <4 x i32>* %55, align 16, !tbaa !9
  %57 = getelementptr inbounds i32, i32* %54, i64 4
  %58 = bitcast i32* %57 to <4 x i32>*
  %59 = load <4 x i32>, <4 x i32>* %58, align 16, !tbaa !9
  %60 = icmp ne <4 x i32> %42, %56
  %61 = icmp ne <4 x i32> %44, %59
  %62 = zext <4 x i1> %60 to <4 x i32>
  %63 = zext <4 x i1> %61 to <4 x i32>
  %64 = add <4 x i32> %51, %62
  %65 = add <4 x i32> %52, %63
  %66 = or i64 %50, 8
  %67 = getelementptr inbounds [100 x i32], [100 x i32]* %2, i64 0, i64 %66
  %68 = bitcast i32* %67 to <4 x i32>*
  %69 = load <4 x i32>, <4 x i32>* %68, align 16, !tbaa !9
  %70 = getelementptr inbounds i32, i32* %67, i64 4
  %71 = bitcast i32* %70 to <4 x i32>*
  %72 = load <4 x i32>, <4 x i32>* %71, align 16, !tbaa !9
  %73 = icmp ne <4 x i32> %42, %69
  %74 = icmp ne <4 x i32> %44, %72
  %75 = zext <4 x i1> %73 to <4 x i32>
  %76 = zext <4 x i1> %74 to <4 x i32>
  %77 = add <4 x i32> %64, %75
  %78 = add <4 x i32> %65, %76
  %79 = add nuw i64 %50, 16
  %80 = add i64 %53, -2
  %81 = icmp eq i64 %80, 0
  br i1 %81, label %82, label %49, !llvm.loop !13

82:                                               ; preds = %49, %39
  %83 = phi <4 x i32> [ undef, %39 ], [ %77, %49 ]
  %84 = phi <4 x i32> [ undef, %39 ], [ %78, %49 ]
  %85 = phi i64 [ 0, %39 ], [ %79, %49 ]
  %86 = phi <4 x i32> [ zeroinitializer, %39 ], [ %77, %49 ]
  %87 = phi <4 x i32> [ zeroinitializer, %39 ], [ %78, %49 ]
  %88 = icmp eq i64 %45, 0
  br i1 %88, label %102, label %89

89:                                               ; preds = %82
  %90 = getelementptr inbounds [100 x i32], [100 x i32]* %2, i64 0, i64 %85
  %91 = getelementptr inbounds i32, i32* %90, i64 4
  %92 = bitcast i32* %91 to <4 x i32>*
  %93 = load <4 x i32>, <4 x i32>* %92, align 16, !tbaa !9
  %94 = icmp ne <4 x i32> %44, %93
  %95 = zext <4 x i1> %94 to <4 x i32>
  %96 = add <4 x i32> %87, %95
  %97 = bitcast i32* %90 to <4 x i32>*
  %98 = load <4 x i32>, <4 x i32>* %97, align 16, !tbaa !9
  %99 = icmp ne <4 x i32> %42, %98
  %100 = zext <4 x i1> %99 to <4 x i32>
  %101 = add <4 x i32> %86, %100
  br label %102

102:                                              ; preds = %82, %89
  %103 = phi <4 x i32> [ %83, %82 ], [ %101, %89 ]
  %104 = phi <4 x i32> [ %84, %82 ], [ %96, %89 ]
  %105 = add <4 x i32> %104, %103
  %106 = call i32 @llvm.vector.reduce.add.v4i32(<4 x i32> %105)
  %107 = icmp eq i64 %35, %40
  br i1 %107, label %121, label %108

108:                                              ; preds = %28, %102
  %109 = phi i64 [ 0, %28 ], [ %40, %102 ]
  %110 = phi i32 [ 0, %28 ], [ %106, %102 ]
  br label %111

111:                                              ; preds = %108, %111
  %112 = phi i64 [ %119, %111 ], [ %109, %108 ]
  %113 = phi i32 [ %118, %111 ], [ %110, %108 ]
  %114 = getelementptr inbounds [100 x i32], [100 x i32]* %2, i64 0, i64 %112
  %115 = load i32, i32* %114, align 4, !tbaa !9
  %116 = icmp ne i32 %37, %115
  %117 = zext i1 %116 to i32
  %118 = add nuw nsw i32 %113, %117
  %119 = add nuw nsw i64 %112, 1
  %120 = icmp eq i64 %119, %31
  br i1 %120, label %121, label %111, !llvm.loop !15

121:                                              ; preds = %111, %102
  %122 = phi i32 [ %106, %102 ], [ %118, %111 ]
  %123 = zext i32 %122 to i64
  %124 = icmp eq i64 %31, %123
  br i1 %124, label %125, label %128

125:                                              ; preds = %121
  %126 = call i32 (i8*, ...) @printf(i8* nonnull dereferenceable(1) getelementptr inbounds ([4 x i8], [4 x i8]* @.str.1, i64 0, i64 0), i32 %37)
  %127 = load i32, i32* %1, align 4, !tbaa !9
  br label %128

128:                                              ; preds = %125, %121
  %129 = phi i32 [ %127, %125 ], [ %30, %121 ]
  %130 = add nuw nsw i64 %31, 1
  %131 = sext i32 %129 to i64
  %132 = icmp slt i64 %130, %131
  %133 = add i64 %29, 1
  br i1 %132, label %28, label %134, !llvm.loop !17

134:                                              ; preds = %128, %20
  %135 = call i32 @putchar(i32 10)
  %136 = load %struct._IO_FILE*, %struct._IO_FILE** @stdin, align 8, !tbaa !5
  %137 = call i32 @getc(%struct._IO_FILE* %136) #5
  call void @llvm.lifetime.end.p0i8(i64 400, i8* nonnull %4) #5
  call void @llvm.lifetime.end.p0i8(i64 4, i8* nonnull %3) #5
  ret i32 0
}

; Function Attrs: argmemonly mustprogress nofree nosync nounwind willreturn
declare void @llvm.lifetime.start.p0i8(i64 immarg, i8* nocapture) #1

; Function Attrs: nofree nounwind
declare noundef i32 @__isoc99_scanf(i8* nocapture noundef readonly, ...) local_unnamed_addr #2

; Function Attrs: nofree nounwind
declare noundef i32 @printf(i8* nocapture noundef readonly, ...) local_unnamed_addr #2

; Function Attrs: argmemonly mustprogress nofree nosync nounwind willreturn
declare void @llvm.lifetime.end.p0i8(i64 immarg, i8* nocapture) #1

; Function Attrs: nofree nounwind
declare noundef i32 @getc(%struct._IO_FILE* nocapture noundef) local_unnamed_addr #2

; Function Attrs: nofree nounwind
declare noundef i32 @putchar(i32 noundef) local_unnamed_addr #3

; Function Attrs: nofree nosync nounwind readnone willreturn
declare i32 @llvm.vector.reduce.add.v4i32(<4 x i32>) #4


!llvm.module.flags = !{!0, !1, !2, !3}
!llvm.ident = !{!4}

!0 = !{i32 1, !"wchar_size", i32 4}
!1 = !{i32 7, !"PIC Level", i32 2}
!2 = !{i32 7, !"PIE Level", i32 2}
!3 = !{i32 7, !"uwtable", i32 1}
!4 = !{!"clang version 13.0.0"}
!5 = !{!6, !6, i64 0}
!6 = !{!"any pointer", !7, i64 0}
!7 = !{!"omnipotent char", !8, i64 0}
!8 = !{!"Simple C/C++ TBAA"}
!9 = !{!10, !10, i64 0}
!10 = !{!"int", !7, i64 0}
!11 = distinct !{!11, !12}
!12 = !{!"llvm.loop.mustprogress"}
!13 = distinct !{!13, !12, !14}
!14 = !{!"llvm.loop.isvectorized", i32 1}
!15 = distinct !{!15, !12, !16, !14}
!16 = !{!"llvm.loop.unroll.runtime.disable"}
!17 = distinct !{!17, !12}
